; Function Attrs: nounwind uwtable
define internal fastcc void @Multilevel_MQ_Clustering_delete(ptr noundef captures(address_is_null) %0) unnamed_addr #0 {
  %.not = icmp eq ptr %0, null
  br i1 %.not, label %common.ret15, label %2

2:                                                ; preds = %1
  %3 = getelementptr inbounds nuw i8, ptr %0, i64 8
  %4 = load ptr, ptr %3, align 8, !tbaa !36
  %.not14 = icmp eq ptr %4, null
  br i1 %.not14, label %12, label %5

5:                                                ; preds = %2
  %6 = load i32, ptr %0, align 8, !tbaa !37
  %7 = icmp eq i32 %6, 0
  br i1 %7, label %8, label %.sink.split

8:                                                ; preds = %5
  %9 = getelementptr inbounds nuw i8, ptr %0, i64 40
  %10 = load i8, ptr %9, align 8, !tbaa !15, !range !38, !noundef !39
  %11 = trunc nuw i8 %10 to i1
  br i1 %11, label %.sink.split, label %12

common.ret15:                                     ; preds = %1, %12
  ret void

.sink.split:                                      ; preds = %5, %8
  tail call void @SparseMatrix_delete(ptr noundef nonnull %4) #13
  br label %12

12:                                               ; preds = %.sink.split, %8, %2
  %13 = getelementptr inbounds nuw i8, ptr %0, i64 16
  %14 = load ptr, ptr %13, align 8, !tbaa !32
  tail call void @SparseMatrix_delete(ptr noundef %14) #13
  %15 = getelementptr inbounds nuw i8, ptr %0, i64 48
  %16 = load ptr, ptr %15, align 8, !tbaa !26
  tail call void @free(ptr noundef %16) #13
  %17 = getelementptr inbounds nuw i8, ptr %0, i64 88
  %18 = load ptr, ptr %17, align 8, !tbaa !40
  tail call void @free(ptr noundef %18) #13
  %19 = getelementptr inbounds nuw i8, ptr %0, i64 96
  %20 = load ptr, ptr %19, align 8, !tbaa !41
  tail call void @free(ptr noundef %20) #13
  %21 = getelementptr inbounds nuw i8, ptr %0, i64 104
  %22 = load ptr, ptr %21, align 8, !tbaa !42
  tail call void @free(ptr noundef %22) #13
  %23 = getelementptr inbounds nuw i8, ptr %0, i64 24
  %24 = load ptr, ptr %23, align 8, !tbaa !20
  tail call fastcc void @Multilevel_MQ_Clustering_delete(ptr noundef %24)
  tail call void @free(ptr noundef nonnull %0) #13
  br label %common.ret15
}